; Function Attrs: nounwind uwtable
define noalias noundef nonnull ptr @l_Array_forIn_x27Unsafe_loop___at_Lean_Elab_processHeaderCore___spec__1___lambda__1(i8 noundef zeroext %0, ptr noundef readonly captures(none) %1, ptr readnone captures(none) %2, ptr noundef %3) local_unnamed_addr #0 {
  %5 = icmp eq i8 %0, 0
  br i1 %5, label %6, label %20

6:                                                ; preds = %4
  %7 = getelementptr inbounds nuw i8, ptr %1, i64 17
  %8 = load i8, ptr %7, align 1, !tbaa !14
  %9 = icmp eq i8 %8, 0
  br i1 %9, label %10, label %15

10:                                               ; preds = %6
  %11 = load ptr, ptr @l_Array_forIn_x27Unsafe_loop___at_Lean_Elab_processHeaderCore___spec__1___lambda__1___closed__2, align 8, !tbaa !4
  tail call void @lean_inc_heartbeat() #5
  %12 = tail call noalias ptr @mi_malloc_small(i64 noundef 24) #5
  %13 = icmp eq ptr %12, null
  br i1 %13, label %14, label %lean_alloc_ctor.exit

14:                                               ; preds = %10
  tail call void @lean_internal_panic_out_of_memory() #6
  unreachable

15:                                               ; preds = %6
  %16 = load ptr, ptr @l_Array_forIn_x27Unsafe_loop___at_Lean_Elab_processHeaderCore___spec__1___lambda__1___closed__3, align 8, !tbaa !4
  tail call void @lean_inc_heartbeat() #5
  %17 = tail call noalias ptr @mi_malloc_small(i64 noundef 24) #5
  %18 = icmp eq ptr %17, null
  br i1 %18, label %19, label %lean_alloc_ctor.exit

19:                                               ; preds = %15
  tail call void @lean_internal_panic_out_of_memory() #6
  unreachable

20:                                               ; preds = %4
  %21 = load ptr, ptr @l_Array_forIn_x27Unsafe_loop___at_Lean_Elab_processHeaderCore___spec__1___lambda__1___closed__3, align 8, !tbaa !4
  tail call void @lean_inc_heartbeat() #5
  %22 = tail call noalias ptr @mi_malloc_small(i64 noundef 24) #5
  %23 = icmp eq ptr %22, null
  br i1 %23, label %24, label %lean_alloc_ctor.exit

24:                                               ; preds = %20
  tail call void @lean_internal_panic_out_of_memory() #6
  unreachable

lean_alloc_ctor.exit:                             ; preds = %20, %15, %10
  %.sink26 = phi ptr [ %12, %10 ], [ %17, %15 ], [ %22, %20 ]
  %.sink23 = phi i32 [ 16908312, %10 ], [ 131096, %15 ], [ 131096, %20 ]
  %.sink = phi ptr [ %11, %10 ], [ %16, %15 ], [ %21, %20 ]
  %25 = getelementptr inbounds nuw i8, ptr %.sink26, i64 4
  store i32 1, ptr %.sink26, align 4, !tbaa !8
  store i32 %.sink23, ptr %25, align 4
  %26 = getelementptr inbounds nuw i8, ptr %.sink26, i64 8
  store ptr %.sink, ptr %26, align 8, !tbaa !4
  %27 = getelementptr inbounds nuw i8, ptr %.sink26, i64 16
  store ptr %3, ptr %27, align 8, !tbaa !4
  ret ptr %.sink26
}